; Function Attrs: mustprogress uwtable
define hidden void @_ZN11opencv_onnx22StringStringEntryProto8CopyFromERKS0_(ptr noundef nonnull align 8 dereferenceable(40) %0, ptr noundef nonnull readonly align 8 dereferenceable(40) %1) local_unnamed_addr #3 align 2 personality ptr @__gxx_personality_v0 {
  %3 = icmp eq ptr %1, %0
  br i1 %3, label %33, label %4

4:                                                ; preds = %2
  %5 = getelementptr inbounds nuw i8, ptr %0, i64 16
  %6 = load i32, ptr %5, align 8, !tbaa !51
  %7 = and i32 %6, 3
  %.not.i = icmp eq i32 %7, 0
  br i1 %.not.i, label %28, label %8

8:                                                ; preds = %4
  %9 = and i32 %6, 1
  %.not3.i = icmp eq i32 %9, 0
  br i1 %.not3.i, label %18, label %10

10:                                               ; preds = %8
  %11 = getelementptr inbounds nuw i8, ptr %0, i64 24
  %12 = load ptr, ptr %11, align 8, !tbaa !41
  %13 = ptrtoint ptr %12 to i64
  %14 = and i64 %13, -2
  %15 = inttoptr i64 %14 to ptr
  %16 = getelementptr inbounds nuw i8, ptr %15, i64 8
  store i64 0, ptr %16, align 8, !tbaa !53
  %17 = load ptr, ptr %15, align 8, !tbaa !57
  store i8 0, ptr %17, align 1, !tbaa !46
  br label %18

18:                                               ; preds = %10, %8
  %19 = and i32 %6, 2
  %.not4.i = icmp eq i32 %19, 0
  br i1 %.not4.i, label %28, label %20

20:                                               ; preds = %18
  %21 = getelementptr inbounds nuw i8, ptr %0, i64 32
  %22 = load ptr, ptr %21, align 8, !tbaa !41
  %23 = ptrtoint ptr %22 to i64
  %24 = and i64 %23, -2
  %25 = inttoptr i64 %24 to ptr
  %26 = getelementptr inbounds nuw i8, ptr %25, i64 8
  store i64 0, ptr %26, align 8, !tbaa !53
  %27 = load ptr, ptr %25, align 8, !tbaa !57
  store i8 0, ptr %27, align 1, !tbaa !46
  br label %28

28:                                               ; preds = %20, %18, %4
  store i32 0, ptr %5, align 8
  %29 = getelementptr inbounds nuw i8, ptr %0, i64 8
  %30 = load i64, ptr %29, align 8, !tbaa !33
  %31 = and i64 %30, 1
  %.not5.i = icmp eq i64 %31, 0
  br i1 %.not5.i, label %_ZN11opencv_onnx22StringStringEntryProto5ClearEv.exit, label %32

32:                                               ; preds = %28
  tail call void @_ZN6google8protobuf8internal16InternalMetadata7DoClearINS0_15UnknownFieldSetEEEvv(ptr noundef nonnull align 8 dereferenceable(8) %29)
  br label %_ZN11opencv_onnx22StringStringEntryProto5ClearEv.exit

_ZN11opencv_onnx22StringStringEntryProto5ClearEv.exit: ; preds = %28, %32
  tail call void @_ZN11opencv_onnx22StringStringEntryProto9MergeFromERKS0_(ptr noundef nonnull align 8 dereferenceable(40) %0, ptr noundef nonnull align 8 dereferenceable(40) %1)
  br label %33

33:                                               ; preds = %2, %_ZN11opencv_onnx22StringStringEntryProto5ClearEv.exit
  ret void
}